target datalayout = "e-m:e-p270:32:32-p271:32:32-p272:64:64-i64:64-i128:128-f80:128-n8:16:32:64-S128"
target triple = "x86_64-pc-linux-gnu"

%"struct.std::__1::hash" = type { i8 }
%"struct.std::__1::__libcpp_contention_table_entry" = type { %"struct.std::__1::__cxx_atomic_impl", %"struct.std::__1::__cxx_atomic_impl", [56 x i8] }
%"struct.std::__1::__cxx_atomic_impl" = type { %"struct.std::__1::__cxx_atomic_base_impl" }
%"struct.std::__1::__cxx_atomic_base_impl" = type { i32 }
%union.anon = type { ptr }

@_ZNSt3__1L26__libcpp_contention_hasherE = internal global %"struct.std::__1::hash" zeroinitializer, align 1

; Function Attrs: mustprogress nounwind uwtable
define linkonce_odr hidden noundef i32 @_ZNSt3__117__cxx_atomic_loadB8ne210000IiEET_PVKNS_22__cxx_atomic_base_implIS1_EENS_12memory_orderE(ptr noundef %0, i32 noundef %1) #0 comdat {
  %3 = alloca ptr, align 8
  %4 = alloca i32, align 4
  %5 = alloca i32, align 4
  store ptr %0, ptr %3, align 8, !tbaa !18
  store i32 %1, ptr %4, align 4, !tbaa !20
  %6 = load ptr, ptr %3, align 8, !tbaa !18
  %7 = getelementptr inbounds nuw %"struct.std::__1::__cxx_atomic_base_impl", ptr %6, i32 0, i32 0
  %8 = load i32, ptr %4, align 4, !tbaa !20
  switch i32 %8, label %9 [
    i32 1, label %11
    i32 2, label %11
    i32 5, label %13
  ]

9:                                                ; preds = %2
  %10 = load atomic i32, ptr %7 monotonic, align 4
  store i32 %10, ptr %5, align 4
  br label %15

11:                                               ; preds = %2, %2
  %12 = load atomic i32, ptr %7 acquire, align 4
  store i32 %12, ptr %5, align 4
  br label %15

13:                                               ; preds = %2
  %14 = load atomic i32, ptr %7 seq_cst, align 4
  store i32 %14, ptr %5, align 4
  br label %15

15:                                               ; preds = %13, %11, %9
  %16 = load i32, ptr %5, align 4, !tbaa !12
  ret i32 %16
}

; Function Attrs: mustprogress nounwind uwtable
define linkonce_odr hidden noundef i64 @_ZNKSt3__14hashIPVKvEclB8ne210000ES2_(ptr noundef nonnull align 1 dereferenceable(1) %0, ptr noundef %1) #0 comdat align 2 {
  %3 = alloca ptr, align 8
  %4 = alloca ptr, align 8
  %5 = alloca %union.anon, align 8
  store ptr %0, ptr %3, align 8, !tbaa !22
  store ptr %1, ptr %4, align 8, !tbaa !4
  call void @llvm.lifetime.start.p0(i64 8, ptr %5) #7
  %6 = load ptr, ptr %4, align 8, !tbaa !4
  store ptr %6, ptr %5, align 8, !tbaa !24
  %7 = call noundef i64 @_ZNSt3__113__hash_memoryEPKvm(ptr noundef captures(none) %5, i64 noundef 8) #8
  call void @llvm.lifetime.end.p0(i64 8, ptr %5) #7
  ret i64 %7
}

; Function Attrs: noinline noreturn nounwind uwtable
define linkonce_odr hidden void @__clang_call_terminate(ptr noundef %0) #2 comdat {
  %2 = call ptr @__cxa_begin_catch(ptr %0) #7
  call void @_ZSt9terminatev() #6
  unreachable
}

; Function Attrs: mustprogress nounwind uwtable
define internal noundef i32 @_ZNSt3__1L36__libcpp_contention_monitor_for_waitEPVNS_17__cxx_atomic_implIiNS_22__cxx_atomic_base_implIiEEEEPVKS3_(ptr noundef %0, ptr noundef %1) #0 {
  %3 = alloca ptr, align 8
  %4 = alloca ptr, align 8
  store ptr %0, ptr %3, align 8, !tbaa !10
  store ptr %1, ptr %4, align 8, !tbaa !10
  %5 = load ptr, ptr %4, align 8, !tbaa !10
  %6 = call noundef i32 @_ZNSt3__117__cxx_atomic_loadB8ne210000IiEET_PVKNS_22__cxx_atomic_base_implIS1_EENS_12memory_orderE(ptr noundef %5, i32 noundef 2) #7
  ret i32 %6
}

; Function Attrs: mustprogress nounwind uwtable
define internal noundef ptr @_ZNSt3__1L25__libcpp_contention_stateEPVKv(ptr noundef %0) #0 {
  %2 = alloca ptr, align 8
  store ptr %0, ptr %2, align 8, !tbaa !4
  %3 = load ptr, ptr %2, align 8, !tbaa !4
  %4 = call noundef i64 @_ZNKSt3__14hashIPVKvEclB8ne210000ES2_(ptr noundef nonnull align 1 dereferenceable(1) @_ZNSt3__1L26__libcpp_contention_hasherE, ptr noundef %3) #7
  %5 = and i64 %4, 255
  %6 = getelementptr inbounds nuw [256 x %"struct.std::__1::__libcpp_contention_table_entry"], ptr @_ZNSt3__1L25__libcpp_contention_tableE, i64 0, i64 %5
  ret ptr %6
}

; Function Attrs: mustprogress nounwind uwtable
define dso_local noundef i32 @_ZNSt3__123__libcpp_atomic_monitorEPVKv(ptr noundef %0) #0 personality ptr @__gxx_personality_v0 {
  %2 = alloca ptr, align 8
  %3 = alloca ptr, align 8
  store ptr %0, ptr %2, align 8, !tbaa !4
  call void @llvm.lifetime.start.p0(i64 8, ptr %3) #7
  %4 = load ptr, ptr %2, align 8, !tbaa !4
  %5 = invoke noundef ptr @_ZNSt3__1L25__libcpp_contention_stateEPVKv(ptr noundef %4)
          to label %6 unwind label %13

6:                                                ; preds = %1
  store ptr %5, ptr %3, align 8, !tbaa !8
  %7 = load ptr, ptr %3, align 8, !tbaa !8
  %8 = getelementptr inbounds nuw %"struct.std::__1::__libcpp_contention_table_entry", ptr %7, i32 0, i32 0
  %9 = load ptr, ptr %3, align 8, !tbaa !8
  %10 = getelementptr inbounds nuw %"struct.std::__1::__libcpp_contention_table_entry", ptr %9, i32 0, i32 1
  %11 = invoke noundef i32 @_ZNSt3__1L36__libcpp_contention_monitor_for_waitEPVNS_17__cxx_atomic_implIiNS_22__cxx_atomic_base_implIiEEEEPVKS3_(ptr noundef %8, ptr noundef %10)
          to label %12 unwind label %13

12:                                               ; preds = %6
  call void @llvm.lifetime.end.p0(i64 8, ptr %3) #7
  ret i32 %11

13:                                               ; preds = %6, %1
  %14 = landingpad { ptr, i32 }
          catch ptr null
  %15 = extractvalue { ptr, i32 } %14, 0
  call void @__clang_call_terminate(ptr %15) #6
  unreachable
}