; Function Attrs: mustprogress nofree nounwind willreturn memory(readwrite, argmem: read, inaccessiblemem: read) uwtable
define dso_local noundef i32 @_ZNSt3__123__libcpp_atomic_monitorEPVKv(ptr noundef %0) local_unnamed_addr #1 personality ptr @__gxx_personality_v0 {
  %2 = alloca %union.anon, align 8
  call void @llvm.lifetime.start.p0(i64 8, ptr nonnull %2) #6
  store ptr %0, ptr %2, align 8, !tbaa !4
  %3 = call noundef i64 @_ZNSt3__113__hash_memoryEPKvm(ptr noundef nonnull captures(none) %2, i64 noundef 8) #7
  call void @llvm.lifetime.end.p0(i64 8, ptr nonnull %2) #6
  %4 = and i64 %3, 255
  %5 = getelementptr inbounds nuw [256 x %"struct.std::__1::__libcpp_contention_table_entry"], ptr @_ZNSt3__1L25__libcpp_contention_tableE, i64 0, i64 %4, i32 1
  %6 = load atomic i32, ptr %5 acquire, align 4
  ret i32 %6
}